(dp1
S'maksssksksss304'
p2
(lp3
(dp4
S'difficult'
p5
I0
sS'pose'
p6
S'Unspecified'
p7
sS'name'
p8
S'with_mask'
p9
sS'bbox'
p10
(lp11
I202
aI61
aI246
aI103
asS'truncated'
p12
I0
sa(dp13
g5
I0
sg6
S'Unspecified'
p14
sg8
S'with_mask'
p15
sg10
(lp16
I190
aI115
aI224
aI150
asg12
I0
sasS'maksssksksss617'
p17
(lp18
(dp19
g5
I0
sg6
S'Unspecified'
p20
sg8
S'with_mask'
p21
sg10
(lp22
I157
aI108
aI244
aI208
asg12
I0
sasS'maksssksksss306'
p23
(lp24
(dp25
g5
I0
sg6
S'Unspecified'
p26
sg8
S'with_mask'
p27
sg10
(lp28
I143
aI181
aI254
aI321
asg12
I0
sasS'maksssksksss462'
p29
(lp30
(dp31
g5
I0
sg6
S'Unspecified'
p32
sg8
S'with_mask'
p33
sg10
(lp34
I119
aI38
aI148
aI73
asg12
I0
sasS'maksssksksss443'
p35
(lp36
(dp37
g5
I0
sg6
S'Unspecified'
p38
sg8
S'without_mask'
p39
sg10
(lp40
I89
aI155
aI187
aI264
asg12
I0
sasS'maksssksksss250'
p41
(lp42
(dp43
g5
I0
sg6
S'Unspecified'
p44
sg8
S'with_mask'
p45
sg10
(lp46
I180
aI64
aI222
aI107
asg12
I0
sa(dp47
g5
I0
sg6
S'Unspecified'
p48
sg8
S'without_mask'
p49
sg10
(lp50
I85
aI65
aI118
aI103
asg12
I0
sa(dp51
g5
I0
sg6
S'Unspecified'
p52
sg8
S'without_mask'
p53
sg10
(lp54
I135
aI36
aI154
aI64
asg12
I0
sa(dp55
g5
I0
sg6
S'Unspecified'
p56
sg8
S'mask_weared_incorrect'
p57
sg10
(lp58
I26
aI42
aI59
aI85
asg12
I0
sa(dp59
g5
I0
sg6
S'Unspecified'
p60
sg8
S'mask_weared_incorrect'
p61
sg10
(lp62
I341
aI32
aI385
aI85
asg12
I0
sasS'maksssksksss634'
p63
(lp64
(dp65
g5
I0
sg6
S'Unspecified'
p66
sg8
S'mask_weared_incorrect'
p67
sg10
(lp68
I126
aI62
aI147
aI91
asg12
I0
sa(dp69
g5
I0
sg6
S'Unspecified'
p70
sg8
S'with_mask'
p71
sg10
(lp72
I184
aI91
aI201
aI115
asg12
I0
sa(dp73
g5
I0
sg6
S'Unspecified'
p74
sg8
S'with_mask'
p75
sg10
(lp76
I307
aI86
aI323
aI105
asg12
I0
sa(dp77
g5
I0
sg6
S'Unspecified'
p78
sg8
S'without_mask'
p79
sg10
(lp80
I370
aI95
aI381
aI108
asg12
I0
sasS'maksssksksss692'
p81
(lp82
(dp83
g5
I0
sg6
S'Unspecified'
p84
sg8
S'with_mask'
p85
sg10
(lp86
I73
aI227
aI161
aI335
asg12
I0
sasS'maksssksksss580'
p87
(lp88
(dp89
g5
I0
sg6
S'Unspecified'
p90
sg8
S'with_mask'
p91
sg10
(lp92
I100
aI57
aI148
aI100
asg12
I0
sasS'maksssksksss581'
p93
(lp94
(dp95
g5
I0
sg6
S'Unspecified'
p96
sg8
S'with_mask'
p97
sg10
(lp98
I86
aI194
aI195
aI340
asg12
I0
sasS'maksssksksss568'
p99
(lp100
(dp101
g5
I0
sg6
S'Unspecified'
p102
sg8
S'with_mask'
p103
sg10
(lp104
I101
aI195
aI194
aI308
asg12
I0
sasS'maksssksksss401'
p105
(lp106
(dp107
g5
I0
sg6
S'Unspecified'
p108
sg8
S'without_mask'
p109
sg10
(lp110
I101
aI49
aI134
aI91
asg12
I0
sa(dp111
g5
I0
sg6
S'Unspecified'
p112
sg8
S'without_mask'
p113
sg10
(lp114
I133
aI75
aI166
aI111
asg12
I0
sa(dp115
g5
I0
sg6
S'Unspecified'
p116
sg8
S'with_mask'
p117
sg10
(lp118
I228
aI102
aI263
aI148
asg12
I0
sa(dp119
g5
I0
sg6
S'Unspecified'
p120
sg8
S'with_mask'
p121
sg10
(lp122
I346
aI62
aI367
aI101
asg12
I0
sasS'maksssksksss249'
p123
(lp124
(dp125
g5
I0
sg6
S'Unspecified'
p126
sg8
S'with_mask'
p127
sg10
(lp128
I168
aI65
aI234
aI139
asg12
I0
sa(dp129
g5
I0
sg6
S'Unspecified'
p130
sg8
S'without_mask'
p131
sg10
(lp132
I309
aI119
aI368
aI191
asg12
I0
sa(dp133
g5
I0
sg6
S'Unspecified'
p134
sg8
S'without_mask'
p135
sg10
(lp136
I223
aI89
aI266
aI146
asg12
I0
sasS'maksssksksss162'
p137
(lp138
(dp139
g5
I0
sg6
S'Unspecified'
p140
sg8
S'with_mask'
p141
sg10
(lp142
I86
aI181
aI191
aI308
asg12
I0
sasS'maksssksksss484'
p143
(lp144
(dp145
g5
I0
sg6
S'Unspecified'
p146
sg8
S'mask_weared_incorrect'
p147
sg10
(lp148
I82
aI52
aI141
aI115
asg12
I0
sasS'maksssksksss267'
p149
(lp150
(dp151
g5
I0
sg6
S'Unspecified'
p152
sg8
S'with_mask'
p153
sg10
(lp154
I161
aI23
aI185
aI45
asg12
I0
sa(dp155
g5
I0
sg6
S'Unspecified'
p156
sg8
S'with_mask'
p157
sg10
(lp158
I225
aI18
aI247
aI42
asg12
I0
sa(dp159
g5
I0
sg6
S'Unspecified'
p160
sg8
S'with_mask'
p161
sg10
(lp162
I197
aI75
aI216
aI100
asg12
I0
sa(dp163
g5
I0
sg6
S'Unspecified'
p164
sg8
S'with_mask'
p165
sg10
(lp166
I272
aI114
aI295
aI138
asg12
I0
sasS'maksssksksss380'
p167
(lp168
(dp169
g5
I0
sg6
S'Unspecified'
p170
sg8
S'with_mask'
p171
sg10
(lp172
I47
aI210
aI157
aI359
asg12
I0
sasS'maksssksksss382'
p173
(lp174
(dp175
g5
I0
sg6
S'Unspecified'
p176
sg8
S'with_mask'
p177
sg10
(lp178
I324
aI89
aI340
aI111
asg12
I0
sa(dp179
g5
I0
sg6
S'Unspecified'
p180
sg8
S'with_mask'
p181
sg10
(lp182
I256
aI111
aI274
aI128
asg12
I0
sa(dp183
g5
I0
sg6
S'Unspecified'
p184
sg8
S'with_mask'
p185
sg10
(lp186
I195
aI96
aI215
aI114
asg12
I0
sa(dp187
g5
I0
sg6
S'Unspecified'
p188
sg8
S'with_mask'
p189
sg10
(lp190
I139
aI105
aI158
aI126
asg12
I0
sa(dp191
g5
I0
sg6
S'Unspecified'
p192
sg8
S'with_mask'
p193
sg10
(lp194
I64
aI95
aI82
aI121
asg12
I0
sasS'maksssksksss123'
p195
(lp196
(dp197
g5
I0
sg6
S'Unspecified'
p198
sg8
S'with_mask'
p199
sg10
(lp200
I92
aI106
aI191
aI224
asg12
I0
sa(dp201
g5
I0
sg6
S'Unspecified'
p202
sg8
S'with_mask'
p203
sg10
(lp204
I227
aI129
aI321
aI229
asg12
I0
sasS'maksssksksss788'
p205
(lp206
(dp207
g5
I0
sg6
S'Unspecified'
p208
sg8
S'with_mask'
p209
sg10
(lp210
I14
aI95
aI45
aI131
asg12
I0
sa(dp211
g5
I0
sg6
S'Unspecified'
p212
sg8
S'with_mask'
p213
sg10
(lp214
I116
aI93
aI147
aI126
asg12
I0
sa(dp215
g5
I0
sg6
S'Unspecified'
p216
sg8
S'with_mask'
p217
sg10
(lp218
I210
aI105
aI241
aI137
asg12
I0
sa(dp219
g5
I0
sg6
S'Unspecified'
p220
sg8
S'with_mask'
p221
sg10
(lp222
I307
aI92
aI332
aI123
asg12
I0
sa(dp223
g5
I0
sg6
S'Unspecified'
p224
sg8
S'with_mask'
p225
sg10
(lp226
I388
aI87
aI418
aI121
asg12
I0
sasS'maksssksksss362'
p227
(lp228
(dp229
g5
I0
sg6
S'Unspecified'
p230
sg8
S'with_mask'
p231
sg10
(lp232
I61
aI117
aI167
aI222
asg12
I0
sa(dp233
g5
I0
sg6
S'Unspecified'
p234
sg8
S'with_mask'
p235
sg10
(lp236
I175
aI127
aI258
aI214
asg12
I0
sa(dp237
g5
I0
sg6
S'Unspecified'
p238
sg8
S'with_mask'
p239
sg10
(lp240
I258
aI90
aI338
aI180
asg12
I0
sasS'maksssksksss54'
p241
(lp242
(dp243
g5
I0
sg6
S'Unspecified'
p244
sg8
S'with_mask'
p245
sg10
(lp246
I119
aI40
aI157
aI80
asg12
I0
sa(dp247
g5
I0
sg6
S'Unspecified'
p248
sg8
S'with_mask'
p249
sg10
(lp250
I197
aI68
aI227
aI110
asg12
I0
sa(dp251
g5
I0
sg6
S'Unspecified'
p252
sg8
S'with_mask'
p253
sg10
(lp254
I316
aI81
aI338
aI113
asg12
I0
sa(dp255
g5
I0
sg6
S'Unspecified'
p256
sg8
S'without_mask'
p257
sg10
(lp258
I161
aI78
aI178
aI98
asg12
I0
sasS'maksssksksss843'
p259
(lp260
(dp261
g5
I0
sg6
S'Unspecified'
p262
sg8
S'with_mask'
p263
sg10
(lp264
I1
aI132
aI59
aI215
asg12
I0
sa(dp265
g5
I0
sg6
S'Unspecified'
p266
sg8
S'with_mask'
p267
sg10
(lp268
I139
aI128
aI224
aI210
asg12
I0
sa(dp269
g5
I0
sg6
S'Unspecified'
p270
sg8
S'with_mask'
p271
sg10
(lp272
I331
aI205
aI400
aI277
asg12
I0
sasS'maksssksksss17'
p273
(lp274
(dp275
g5
I0
sg6
S'Unspecified'
p276
sg8
S'with_mask'
p277
sg10
(lp278
I73
aI179
aI169
aI297
asg12
I0
sasS'maksssksksss784'
p279
(lp280
(dp281
g5
I0
sg6
S'Unspecified'
p282
sg8
S'without_mask'
p283
sg10
(lp284
I17
aI59
aI39
aI82
asg12
I0
sa(dp285
g5
I0
sg6
S'Unspecified'
p286
sg8
S'with_mask'
p287
sg10
(lp288
I43
aI59
aI71
aI92
asg12
I0
sa(dp289
g5
I0
sg6
S'Unspecified'
p290
sg8
S'with_mask'
p291
sg10
(lp292
I91
aI78
aI120
aI108
asg12
I0
sa(dp293
g5
I0
sg6
S'Unspecified'
p294
sg8
S'with_mask'
p295
sg10
(lp296
I110
aI43
aI141
aI77
asg12
I0
sa(dp297
g5
I0
sg6
S'Unspecified'
p298
sg8
S'with_mask'
p299
sg10
(lp300
I138
aI82
aI169
aI112
asg12
I0
sa(dp301
g5
I0
sg6
S'Unspecified'
p302
sg8
S'with_mask'
p303
sg10
(lp304
I175
aI55
aI204
aI88
asg12
I0
sa(dp305
g5
I0
sg6
S'Unspecified'
p306
sg8
S'with_mask'
p307
sg10
(lp308
I235
aI36
aI267
aI71
asg12
I0
sa(dp309
g5
I0
sg6
S'Unspecified'
p310
sg8
S'with_mask'
p311
sg10
(lp312
I276
aI67
aI306
aI99
asg12
I0
sa(dp313
g5
I0
sg6
S'Unspecified'
p314
sg8
S'with_mask'
p315
sg10
(lp316
I317
aI69
aI343
aI105
asg12
I0
sasS'maksssksksss785'
p317
(lp318
(dp319
g5
I0
sg6
S'Unspecified'
p320
sg8
S'without_mask'
p321
sg10
(lp322
I159
aI90
aI217
aI164
asg12
I0
sasS'maksssksksss771'
p323
(lp324
(dp325
g5
I0
sg6
S'Unspecified'
p326
sg8
S'with_mask'
p327
sg10
(lp328
I31
aI109
aI93
aI161
asg12
I0
sa(dp329
g5
I0
sg6
S'Unspecified'
p330
sg8
S'with_mask'
p331
sg10
(lp332
I83
aI43
aI119
aI86
asg12
I0
sa(dp333
g5
I0
sg6
S'Unspecified'
p334
sg8
S'with_mask'
p335
sg10
(lp336
I140
aI70
aI195
aI128
asg12
I0
sa(dp337
g5
I0
sg6
S'Unspecified'
p338
sg8
S'with_mask'
p339
sg10
(lp340
I280
aI77
aI366
aI165
asg12
I0
sa(dp341
g5
I0
sg6
S'Unspecified'
p342
sg8
S'with_mask'
p343
sg10
(lp344
I360
aI10
aI394
aI46
asg12
I0
sasS'maksssksksss539'
p345
(lp346
(dp347
g5
I0
sg6
S'Unspecified'
p348
sg8
S'with_mask'
p349
sg10
(lp350
I25
aI13
aI35
aI25
asg12
I0
sa(dp351
g5
I0
sg6
S'Unspecified'
p352
sg8
S'with_mask'
p353
sg10
(lp354
I55
aI10
aI65
aI20
asg12
I0
sa(dp355
g5
I0
sg6
S'Unspecified'
p356
sg8
S'with_mask'
p357
sg10
(lp358
I120
aI16
aI130
aI31
asg12
I0
sa(dp359
g5
I0
sg6
S'Unspecified'
p360
sg8
S'with_mask'
p361
sg10
(lp362
I167
aI3
aI178
aI15
asg12
I0
sa(dp363
g5
I0
sg6
S'Unspecified'
p364
sg8
S'with_mask'
p365
sg10
(lp366
I21
aI48
aI34
aI62
asg12
I0
sa(dp367
g5
I0
sg6
S'Unspecified'
p368
sg8
S'with_mask'
p369
sg10
(lp370
I53
aI40
aI66
aI52
asg12
I0
sa(dp371
g5
I0
sg6
S'Unspecified'
p372
sg8
S'with_mask'
p373
sg10
(lp374
I107
aI37
aI119
aI51
asg12
I0
sa(dp375
g5
I0
sg6
S'Unspecified'
p376
sg8
S'with_mask'
p377
sg10
(lp378
I116
aI56
aI128
aI68
asg12
I0
sa(dp379
g5
I0
sg6
S'Unspecified'
p380
sg8
S'with_mask'
p381
sg10
(lp382
I91
aI77
aI104
aI89
asg12
I0
sa(dp383
g5
I0
sg6
S'Unspecified'
p384
sg8
S'with_mask'
p385
sg10
(lp386
I25
aI72
aI40
aI86
asg12
I0
sa(dp387
g5
I0
sg6
S'Unspecified'
p388
sg8
S'with_mask'
p389
sg10
(lp390
I8
aI90
aI22
aI105
asg12
I0
sa(dp391
g5
I0
sg6
S'Unspecified'
p392
sg8
S'with_mask'
p393
sg10
(lp394
I36
aI105
aI50
aI117
asg12
I0
sa(dp395
g5
I0
sg6
S'Unspecified'
p396
sg8
S'with_mask'
p397
sg10
(lp398
I36
aI122
aI48
aI138
asg12
I0
sa(dp399
g5
I0
sg6
S'Unspecified'
p400
sg8
S'with_mask'
p401
sg10
(lp402
I60
aI131
aI73
aI146
asg12
I0
sa(dp403
g5
I0
sg6
S'Unspecified'
p404
sg8
S'with_mask'
p405
sg10
(lp406
I61
aI152
aI79
aI169
asg12
I0
sa(dp407
g5
I0
sg6
S'Unspecified'
p408
sg8
S'with_mask'
p409
sg10
(lp410
I42
aI206
aI60
aI222
asg12
I0
sa(dp411
g5
I0
sg6
S'Unspecified'
p412
sg8
S'with_mask'
p413
sg10
(lp414
I52
aI238
aI70
aI257
asg12
I0
sa(dp415
g5
I0
sg6
S'Unspecified'
p416
sg8
S'with_mask'
p417
sg10
(lp418
I93
aI226
aI111
aI241
asg12
I0
sa(dp419
g5
I0
sg6
S'Unspecified'
p420
sg8
S'with_mask'
p421
sg10
(lp422
I124
aI128
aI140
aI142
asg12
I0
sa(dp423
g5
I0
sg6
S'Unspecified'
p424
sg8
S'with_mask'
p425
sg10
(lp426
I134
aI90
aI146
aI103
asg12
I0
sa(dp427
g5
I0
sg6
S'Unspecified'
p428
sg8
S'with_mask'
p429
sg10
(lp430
I143
aI210
aI161
aI229
asg12
I0
sa(dp431
g5
I0
sg6
S'Unspecified'
p432
sg8
S'with_mask'
p433
sg10
(lp434
I170
aI142
aI185
aI160
asg12
I0
sa(dp435
g5
I0
sg6
S'Unspecified'
p436
sg8
S'with_mask'
p437
sg10
(lp438
I196
aI23
aI207
aI32
asg12
I0
sa(dp439
g5
I0
sg6
S'Unspecified'
p440
sg8
S'with_mask'
p441
sg10
(lp442
I205
aI37
aI217
aI49
asg12
I0
sa(dp443
g5
I0
sg6
S'Unspecified'
p444
sg8
S'with_mask'
p445
sg10
(lp446
I231
aI25
aI242
aI37
asg12
I0
sa(dp447
g5
I0
sg6
S'Unspecified'
p448
sg8
S'with_mask'
p449
sg10
(lp450
I220
aI49
aI232
aI61
asg12
I0
sa(dp451
g5
I0
sg6
S'Unspecified'
p452
sg8
S'with_mask'
p453
sg10
(lp454
I258
aI46
aI271
aI58
asg12
I0
sa(dp455
g5
I0
sg6
S'Unspecified'
p456
sg8
S'with_mask'
p457
sg10
(lp458
I247
aI60
aI261
aI76
asg12
I0
sa(dp459
g5
I0
sg6
S'Unspecified'
p460
sg8
S'with_mask'
p461
sg10
(lp462
I233
aI101
aI247
aI116
asg12
I0
sa(dp463
g5
I0
sg6
S'Unspecified'
p464
sg8
S'with_mask'
p465
sg10
(lp466
I214
aI124
aI228
aI141
asg12
I0
sa(dp467
g5
I0
sg6
S'Unspecified'
p468
sg8
S'with_mask'
p469
sg10
(lp470
I279
aI203
aI296
aI222
asg12
I0
sa(dp471
g5
I0
sg6
S'Unspecified'
p472
sg8
S'with_mask'
p473
sg10
(lp474
I302
aI93
aI316
aI110
asg12
I0
sa(dp475
g5
I0
sg6
S'Unspecified'
p476
sg8
S'with_mask'
p477
sg10
(lp478
I313
aI139
aI328
aI155
asg12
I0
sa(dp479
g5
I0
sg6
S'Unspecified'
p480
sg8
S'with_mask'
p481
sg10
(lp482
I310
aI8
aI322
aI18
asg12
I0
sa(dp483
g5
I0
sg6
S'Unspecified'
p484
sg8
S'with_mask'
p485
sg10
(lp486
I322
aI2
aI331
aI14
asg12
I0
sa(dp487
g5
I0
sg6
S'Unspecified'
p488
sg8
S'without_mask'
p489
sg10
(lp490
I366
aI11
aI376
aI24
asg12
I0
sa(dp491
g5
I0
sg6
S'Unspecified'
p492
sg8
S'with_mask'
p493
sg10
(lp494
I330
aI27
aI343
aI37
asg12
I0
sa(dp495
g5
I0
sg6
S'Unspecified'
p496
sg8
S'with_mask'
p497
sg10
(lp498
I376
aI89
aI391
aI100
asg12
I0
sa(dp499
g5
I0
sg6
S'Unspecified'
p500
sg8
S'with_mask'
p501
sg10
(lp502
I353
aI125
aI367
aI140
asg12
I0
sa(dp503
g5
I0
sg6
S'Unspecified'
p504
sg8
S'with_mask'
p505
sg10
(lp506
I363
aI176
aI376
aI192
asg12
I0
sa(dp507
g5
I0
sg6
S'Unspecified'
p508
sg8
S'with_mask'
p509
sg10
(lp510
I372
aI191
aI392
aI205
asg12
I0
sasS'maksssksksss687'
p511
(lp512
(dp513
g5
I0
sg6
S'Unspecified'
p514
sg8
S'with_mask'
p515
sg10
(lp516
I57
aI211
aI168
aI353
asg12
I0
sasS'maksssksksss468'
p517
(lp518
(dp519
g5
I0
sg6
S'Unspecified'
p520
sg8
S'with_mask'
p521
sg10
(lp522
I100
aI144
aI215
aI273
asg12
I0
sasS'maksssksksss533'
p523
(lp524
(dp525
g5
I0
sg6
S'Unspecified'
p526
sg8
S'with_mask'
p527
sg10
(lp528
I101
aI203
aI205
aI347
asg12
I0
sasS'maksssksksss647'
p529
(lp530
(dp531
g5
I0
sg6
S'Unspecified'
p532
sg8
S'mask_weared_incorrect'
p533
sg10
(lp534
I21
aI40
aI66
aI87
asg12
I0
sa(dp535
g5
I0
sg6
S'Unspecified'
p536
sg8
S'without_mask'
p537
sg10
(lp538
I82
aI21
aI108
aI43
asg12
I0
sa(dp539
g5
I0
sg6
S'Unspecified'
p540
sg8
S'with_mask'
p541
sg10
(lp542
I134
aI44
aI152
aI67
asg12
I0
sa(dp543
g5
I0
sg6
S'Unspecified'
p544
sg8
S'with_mask'
p545
sg10
(lp546
I150
aI75
aI182
aI109
asg12
I0
sa(dp547
g5
I0
sg6
S'Unspecified'
p548
sg8
S'with_mask'
p549
sg10
(lp550
I62
aI159
aI145
aI240
asg12
I0
sa(dp551
g5
I0
sg6
S'Unspecified'
p552
sg8
S'with_mask'
p553
sg10
(lp554
I186
aI142
aI264
aI223
asg12
I0
sa(dp555
g5
I0
sg6
S'Unspecified'
p556
sg8
S'with_mask'
p557
sg10
(lp558
I229
aI85
aI268
aI128
asg12
I0
sa(dp559
g5
I0
sg6
S'Unspecified'
p560
sg8
S'with_mask'
p561
sg10
(lp562
I186
aI52
aI214
aI82
asg12
I0
sa(dp563
g5
I0
sg6
S'Unspecified'
p564
sg8
S'without_mask'
p565
sg10
(lp566
I317
aI47
aI350
aI81
asg12
I0
sa(dp567
g5
I0
sg6
S'Unspecified'
p568
sg8
S'with_mask'
p569
sg10
(lp570
I361
aI23
aI397
aI53
asg12
I0
sa(dp571
g5
I0
sg6
S'Unspecified'
p572
sg8
S'with_mask'
p573
sg10
(lp574
I368
aI58
aI400
aI96
asg12
I0
sa(dp575
g5
I0
sg6
S'Unspecified'
p576
sg8
S'with_mask'
p577
sg10
(lp578
I294
aI123
aI339
aI172
asg12
I0
sasS'maksssksksss646'
p579
(lp580
(dp581
g5
I0
sg6
S'Unspecified'
p582
sg8
S'with_mask'
p583
sg10
(lp584
I91
aI188
aI201
aI334
asg12
I0
sasS'maksssksksss537'
p585
(lp586
(dp587
g5
I0
sg6
S'Unspecified'
p588
sg8
S'without_mask'
p589
sg10
(lp590
I95
aI177
aI195
aI295
asg12
I0
sasS'maksssksksss536'
p591
(lp592
(dp593
g5
I0
sg6
S'Unspecified'
p594
sg8
S'with_mask'
p595
sg10
(lp596
I107
aI158
aI197
aI287
asg12
I0
sasS'maksssksksss471'
p597
(lp598
(dp599
g5
I0
sg6
S'Unspecified'
p600
sg8
S'with_mask'
p601
sg10
(lp602
I65
aI71
aI100
aI113
asg12
I0
sa(dp603
g5
I0
sg6
S'Unspecified'
p604
sg8
S'without_mask'
p605
sg10
(lp606
I134
aI61
aI153
aI88
asg12
I0
sa(dp607
g5
I0
sg6
S'Unspecified'
p608
sg8
S'without_mask'
p609
sg10
(lp610
I168
aI35
aI194
aI68
asg12
I0
sa(dp611
g5
I0
sg6
S'Unspecified'
p612
sg8
S'with_mask'
p613
sg10
(lp614
I363
aI52
aI386
aI75
asg12
I0
sa(dp615
g5
I0
sg6
S'Unspecified'
p616
sg8
S'with_mask'
p617
sg10
(lp618
I336
aI78
aI357
aI95
asg12
I0
sasS'maksssksksss317'
p619
(lp620
(dp621
g5
I0
sg6
S'Unspecified'
p622
sg8
S'with_mask'
p623
sg10
(lp624
I67
aI53
aI164
aI174
asg12
I0
sa(dp625
g5
I0
sg6
S'Unspecified'
p626
sg8
S'without_mask'
p627
sg10
(lp628
I283
aI25
aI326
aI69
asg12
I0
sasS'maksssksksss218'
p629
(lp630
(dp631
g5
I0
sg6
S'Unspecified'
p632
sg8
S'without_mask'
p633
sg10
(lp634
I139
aI223
aI251
aI371
asg12
I0
sasS'maksssksksss141'
p635
(lp636
(dp637
g5
I0
sg6
S'Unspecified'
p638
sg8
S'with_mask'
p639
sg10
(lp640
I129
aI96
aI175
aI155
asg12
I0
sa(dp641
g5
I0
sg6
S'Unspecified'
p642
sg8
S'with_mask'
p643
sg10
(lp644
I220
aI123
aI260
aI169
asg12
I0
sasS'maksssksksss478'
p645
(lp646
(dp647
g5
I0
sg6
S'Unspecified'
p648
sg8
S'with_mask'
p649
sg10
(lp650
I36
aI102
aI157
aI243
asg12
I0
sa(dp651
g5
I0
sg6
S'Unspecified'
p652
sg8
S'with_mask'
p653
sg10
(lp654
I246
aI134
aI362
aI250
asg12
I0
sasS'maksssksksss337'
p655
(lp656
(dp657
g5
I0
sg6
S'Unspecified'
p658
sg8
S'with_mask'
p659
sg10
(lp660
I115
aI32
aI145
aI70
asg12
I0
sasS'maksssksksss199'
p661
(lp662
(dp663
g5
I0
sg6
S'Unspecified'
p664
sg8
S'with_mask'
p665
sg10
(lp666
I44
aI143
aI53
aI156
asg12
I0
sa(dp667
g5
I0
sg6
S'Unspecified'
p668
sg8
S'mask_weared_incorrect'
p669
sg10
(lp670
I134
aI118
aI143
aI128
asg12
I0
sa(dp671
g5
I0
sg6
S'Unspecified'
p672
sg8
S'with_mask'
p673
sg10
(lp674
I210
aI101
aI220
aI116
asg12
I0
sa(dp675
g5
I0
sg6
S'Unspecified'
p676
sg8
S'with_mask'
p677
sg10
(lp678
I271
aI127
aI281
aI140
asg12
I0
sa(dp679
g5
I0
sg6
S'Unspecified'
p680
sg8
S'with_mask'
p681
sg10
(lp682
I320
aI113
aI333
aI127
asg12
I0
sasS'maksssksksss753'
p683
(lp684
(dp685
g5
I0
sg6
S'Unspecified'
p686
sg8
S'with_mask'
p687
sg10
(lp688
I198
aI136
aI238
aI177
asg12
I0
sa(dp689
g5
I0
sg6
S'Unspecified'
p690
sg8
S'with_mask'
p691
sg10
(lp692
I9
aI115
aI17
aI124
asg12
I0
sa(dp693
g5
I0
sg6
S'Unspecified'
p694
sg8
S'with_mask'
p695
sg10
(lp696
I50
aI124
aI53
aI133
asg12
I0
sa(dp697
g5
I0
sg6
S'Unspecified'
p698
sg8
S'with_mask'
p699
sg10
(lp700
I93
aI122
aI99
aI130
asg12
I0
sa(dp701
g5
I0
sg6
S'Unspecified'
p702
sg8
S'with_mask'
p703
sg10
(lp704
I105
aI119
aI113
aI127
asg12
I0
sa(dp705
g5
I0
sg6
S'Unspecified'
p706
sg8
S'with_mask'
p707
sg10
(lp708
I148
aI123
aI154
aI133
asg12
I0
sa(dp709
g5
I0
sg6
S'Unspecified'
p710
sg8
S'without_mask'
p711
sg10
(lp712
I135
aI115
aI144
aI125
asg12
I0
sa(dp713
g5
I0
sg6
S'Unspecified'
p714
sg8
S'with_mask'
p715
sg10
(lp716
I170
aI116
aI177
aI126
asg12
I0
sa(dp717
g5
I0
sg6
S'Unspecified'
p718
sg8
S'with_mask'
p719
sg10
(lp720
I194
aI117
aI202
aI128
asg12
I0
sa(dp721
g5
I0
sg6
S'Unspecified'
p722
sg8
S'with_mask'
p723
sg10
(lp724
I259
aI120
aI265
aI130
asg12
I0
sa(dp725
g5
I0
sg6
S'Unspecified'
p726
sg8
S'with_mask'
p727
sg10
(lp728
I277
aI117
aI281
aI125
asg12
I0
sa(dp729
g5
I0
sg6
S'Unspecified'
p730
sg8
S'with_mask'
p731
sg10
(lp732
I293
aI124
aI298
aI132
asg12
I0
sa(dp733
g5
I0
sg6
S'Unspecified'
p734
sg8
S'with_mask'
p735
sg10
(lp736
I346
aI87
aI353
aI93
asg12
I0
sa(dp737
g5
I0
sg6
S'Unspecified'
p738
sg8
S'with_mask'
p739
sg10
(lp740
I374
aI119
aI378
aI126
asg12
I0
sa(dp741
g5
I0
sg6
S'Unspecified'
p742
sg8
S'without_mask'
p743
sg10
(lp744
I352
aI117
aI359
aI126
asg12
I0
sa(dp745
g5
I0
sg6
S'Unspecified'
p746
sg8
S'with_mask'
p747
sg10
(lp748
I353
aI103
aI360
aI110
asg12
I0
sasS'maksssksksss458'
p749
(lp750
(dp751
g5
I0
sg6
S'Unspecified'
p752
sg8
S'without_mask'
p753
sg10
(lp754
I22
aI110
aI47
aI136
asg12
I0
sa(dp755
g5
I0
sg6
S'Unspecified'
p756
sg8
S'with_mask'
p757
sg10
(lp758
I105
aI86
aI149
aI143
asg12
I0
sa(dp759
g5
I0
sg6
S'Unspecified'
p760
sg8
S'with_mask'
p761
sg10
(lp762
I146
aI118
aI182
aI159
asg12
I0
sasS'maksssksksss334'
p763
(lp764
(dp765
g5
I0
sg6
S'Unspecified'
p766
sg8
S'with_mask'
p767
sg10
(lp768
I96
aI74
aI136
aI127
asg12
I0
sa(dp769
g5
I0
sg6
S'Unspecified'
p770
sg8
S'with_mask'
p771
sg10
(lp772
I193
aI100
aI234
aI146
asg12
I0
sa(dp773
g5
I0
sg6
S'Unspecified'
p774
sg8
S'with_mask'
p775
sg10
(lp776
I259
aI105
aI305
aI151
asg12
I0
sa(dp777
g5
I0
sg6
S'Unspecified'
p778
sg8
S'without_mask'
p779
sg10
(lp780
I334
aI106
aI367
aI144
asg12
I0
sasS'maksssksksss621'
p781
(lp782
(dp783
g5
I0
sg6
S'Unspecified'
p784
sg8
S'without_mask'
p785
sg10
(lp786
I14
aI52
aI68
aI137
asg12
I0
sa(dp787
g5
I0
sg6
S'Unspecified'
p788
sg8
S'with_mask'
p789
sg10
(lp790
I191
aI35
aI208
aI54
asg12
I0
sa(dp791
g5
I0
sg6
S'Unspecified'
p792
sg8
S'with_mask'
p793
sg10
(lp794
I162
aI111
aI192
aI137
asg12
I0
sa(dp795
g5
I0
sg6
S'Unspecified'
p796
sg8
S'with_mask'
p797
sg10
(lp798
I299
aI46
aI386
aI141
asg12
I0
sa(dp799
g5
I0
sg6
S'Unspecified'
p800
sg8
S'with_mask'
p801
sg10
(lp802
I218
aI29
aI235
aI48
asg12
I0
sasS'maksssksksss606'
p803
(lp804
(dp805
g5
I0
sg6
S'Unspecified'
p806
sg8
S'with_mask'
p807
sg10
(lp808
I224
aI102
aI256
aI135
asg12
I0
sa(dp809
g5
I0
sg6
S'Unspecified'
p810
sg8
S'with_mask'
p811
sg10
(lp812
I133
aI126
aI158
aI149
asg12
I0
sasS'maksssksksss490'
p813
(lp814
(dp815
g5
I0
sg6
S'Unspecified'
p816
sg8
S'with_mask'
p817
sg10
(lp818
I85
aI149
aI212
aI280
asg12
I0
sasS'maksssksksss101'
p819
(lp820
(dp821
g5
I0
sg6
S'Unspecified'
p822
sg8
S'with_mask'
p823
sg10
(lp824
I48
aI294
aI164
aI400
asg12
I0
sasS'maksssksksss561'
p825
(lp826
(dp827
g5
I0
sg6
S'Unspecified'
p828
sg8
S'without_mask'
p829
sg10
(lp830
I81
aI163
aI184
aI279
asg12
I0
sasS'maksssksksss496'
p831
(lp832
(dp833
g5
I0
sg6
S'Unspecified'
p834
sg8
S'mask_weared_incorrect'
p835
sg10
(lp836
I85
aI97
aI184
aI207
asg12
I0
sasS'maksssksksss81'
p837
(lp838
(dp839
g5
I0
sg6
S'Unspecified'
p840
sg8
S'with_mask'
p841
sg10
(lp842
I27
aI46
aI123
aI154
asg12
I0
sa(dp843
g5
I0
sg6
S'Unspecified'
p844
sg8
S'with_mask'
p845
sg10
(lp846
I145
aI99
aI229
aI190
asg12
I0
sa(dp847
g5
I0
sg6
S'Unspecified'
p848
sg8
S'with_mask'
p849
sg10
(lp850
I275
aI82
aI362
aI174
asg12
I0
sasS'maksssksksss276'
p851
(lp852
(dp853
g5
I0
sg6
S'Unspecified'
p854
sg8
S'mask_weared_incorrect'
p855
sg10
(lp856
I122
aI38
aI222
aI160
asg12
I0
sa(dp857
g5
I0
sg6
S'Unspecified'
p858
sg8
S'without_mask'
p859
sg10
(lp860
I274
aI112
aI310
aI153
asg12
I0
sasS'maksssksksss277'
p861
(lp862
(dp863
g5
I0
sg6
S'Unspecified'
p864
sg8
S'with_mask'
p865
sg10
(lp866
I29
aI47
aI50
aI61
asg12
I0
sa(dp867
g5
I0
sg6
S'Unspecified'
p868
sg8
S'with_mask'
p869
sg10
(lp870
I96
aI39
aI114
aI54
asg12
I0
sa(dp871
g5
I0
sg6
S'Unspecified'
p872
sg8
S'with_mask'
p873
sg10
(lp874
I59
aI61
aI67
aI70
asg12
I0
sa(dp875
g5
I0
sg6
S'Unspecified'
p876
sg8
S'with_mask'
p877
sg10
(lp878
I130
aI51
aI141
aI62
asg12
I0
sa(dp879
g5
I0
sg6
S'Unspecified'
p880
sg8
S'with_mask'
p881
sg10
(lp882
I163
aI45
aI178
aI63
asg12
I0
sa(dp883
g5
I0
sg6
S'Unspecified'
p884
sg8
S'with_mask'
p885
sg10
(lp886
I205
aI49
aI221
aI68
asg12
I0
sa(dp887
g5
I0
sg6
S'Unspecified'
p888
sg8
S'with_mask'
p889
sg10
(lp890
I280
aI50
aI291
aI69
asg12
I0
sa(dp891
g5
I0
sg6
S'Unspecified'
p892
sg8
S'with_mask'
p893
sg10
(lp894
I338
aI47
aI353
aI64
asg12
I0
sa(dp895
g5
I0
sg6
S'Unspecified'
p896
sg8
S'with_mask'
p897
sg10
(lp898
I232
aI74
aI236
aI79
asg12
I0
sa(dp899
g5
I0
sg6
S'Unspecified'
p900
sg8
S'with_mask'
p901
sg10
(lp902
I394
aI79
aI398
aI84
asg12
I0
sa(dp903
g5
I0
sg6
S'Unspecified'
p904
sg8
S'with_mask'
p905
sg10
(lp906
I388
aI80
aI394
aI86
asg12
I0
sasS'maksssksksss342'
p907
(lp908
(dp909
g5
I0
sg6
S'Unspecified'
p910
sg8
S'without_mask'
p911
sg10
(lp912
I28
aI53
aI54
aI81
asg12
I0
sa(dp913
g5
I0
sg6
S'Unspecified'
p914
sg8
S'with_mask'
p915
sg10
(lp916
I86
aI46
aI103
aI64
asg12
I0
sa(dp917
g5
I0
sg6
S'Unspecified'
p918
sg8
S'with_mask'
p919
sg10
(lp920
I103
aI49
aI116
aI62
asg12
I0
sa(dp921
g5
I0
sg6
S'Unspecified'
p922
sg8
S'with_mask'
p923
sg10
(lp924
I130
aI42
aI144
aI58
asg12
I0
sa(dp925
g5
I0
sg6
S'Unspecified'
p926
sg8
S'with_mask'
p927
sg10
(lp928
I72
aI93
aI99
aI120
asg12
I0
sa(dp929
g5
I0
sg6
S'Unspecified'
p930
sg8
S'with_mask'
p931
sg10
(lp932
I106
aI116
aI145
aI158
asg12
I0
sa(dp933
g5
I0
sg6
S'Unspecified'
p934
sg8
S'with_mask'
p935
sg10
(lp936
I152
aI48
aI162
aI60
asg12
I0
sa(dp937
g5
I0
sg6
S'Unspecified'
p938
sg8
S'with_mask'
p939
sg10
(lp940
I160
aI56
aI173
aI70
asg12
I0
sa(dp941
g5
I0
sg6
S'Unspecified'
p942
sg8
S'with_mask'
p943
sg10
(lp944
I184
aI64
aI203
aI91
asg12
I0
sa(dp945
g5
I0
sg6
S'Unspecified'
p946
sg8
S'with_mask'
p947
sg10
(lp948
I213
aI47
aI226
aI66
asg12
I0
sa(dp949
g5
I0
sg6
S'Unspecified'
p950
sg8
S'with_mask'
p951
sg10
(lp952
I252
aI95
aI287
aI130
asg12
I0
sa(dp953
g5
I0
sg6
S'Unspecified'
p954
sg8
S'with_mask'
p955
sg10
(lp956
I320
aI192
aI385
aI255
asg12
I0
sa(dp957
g5
I0
sg6
S'Unspecified'
p958
sg8
S'with_mask'
p959
sg10
(lp960
I297
aI62
aI320
aI85
asg12
I0
sasS'maksssksksss571'
p961
(lp962
(dp963
g5
I0
sg6
S'Unspecified'
p964
sg8
S'without_mask'
p965
sg10
(lp966
I122
aI196
aI210
aI319
asg12
I0
sasS'maksssksksss160'
p967
(lp968
(dp969
g5
I0
sg6
S'Unspecified'
p970
sg8
S'with_mask'
p971
sg10
(lp972
I71
aI82
aI151
aI153
asg12
I0
sa(dp973
g5
I0
sg6
S'Unspecified'
p974
sg8
S'with_mask'
p975
sg10
(lp976
I246
aI107
aI326
aI195
asg12
I0
sasS'maksssksksss331'
p977
(lp978
(dp979
g5
I0
sg6
S'Unspecified'
p980
sg8
S'with_mask'
p981
sg10
(lp982
I25
aI69
aI48
aI93
asg12
I0
sa(dp983
g5
I0
sg6
S'Unspecified'
p984
sg8
S'mask_weared_incorrect'
p985
sg10
(lp986
I88
aI87
aI107
aI106
asg12
I0
sa(dp987
g5
I0
sg6
S'Unspecified'
p988
sg8
S'with_mask'
p989
sg10
(lp990
I128
aI61
aI149
aI84
asg12
I0
sa(dp991
g5
I0
sg6
S'Unspecified'
p992
sg8
S'with_mask'
p993
sg10
(lp994
I127
aI157
aI168
aI209
asg12
I0
sa(dp995
g5
I0
sg6
S'Unspecified'
p996
sg8
S'with_mask'
p997
sg10
(lp998
I147
aI110
aI181
aI145
asg12
I0
sa(dp999
g5
I0
sg6
S'Unspecified'
p1000
sg8
S'with_mask'
p1001
sg10
(lp1002
I208
aI61
aI220
aI77
asg12
I0
sa(dp1003
g5
I0
sg6
S'Unspecified'
p1004
sg8
S'with_mask'
p1005
sg10
(lp1006
I229
aI96
aI265
aI137
asg12
I0
sa(dp1007
g5
I0
sg6
S'Unspecified'
p1008
sg8
S'mask_weared_incorrect'
p1009
sg10
(lp1010
I263
aI46
aI277
aI65
asg12
I0
sa(dp1011
g5
I0
sg6
S'Unspecified'
p1012
sg8
S'with_mask'
p1013
sg10
(lp1014
I270
aI72
aI288
aI92
asg12
I0
sa(dp1015
g5
I0
sg6
S'Unspecified'
p1016
sg8
S'with_mask'
p1017
sg10
(lp1018
I298
aI108
aI321
aI133
asg12
I0
sa(dp1019
g5
I0
sg6
S'Unspecified'
p1020
sg8
S'with_mask'
p1021
sg10
(lp1022
I308
aI65
aI328
aI86
asg12
I0
sa(dp1023
g5
I0
sg6
S'Unspecified'
p1024
sg8
S'with_mask'
p1025
sg10
(lp1026
I334
aI119
aI381
aI163
asg12
I0
sa(dp1027
g5
I0
sg6
S'Unspecified'
p1028
sg8
S'with_mask'
p1029
sg10
(lp1030
I365
aI49
aI380
aI65
asg12
I0
sa(dp1031
g5
I0
sg6
S'Unspecified'
p1032
sg8
S'with_mask'
p1033
sg10
(lp1034
I342
aI49
aI358
aI67
asg12
I0
sa(dp1035
g5
I0
sg6
S'Unspecified'
p1036
sg8
S'with_mask'
p1037
sg10
(lp1038
I1
aI148
aI23
aI179
asg12
I0
sasS'maksssksksss44'
p1039
(lp1040
(dp1041
g5
I0
sg6
S'Unspecified'
p1042
sg8
S'with_mask'
p1043
sg10
(lp1044
I43
aI139
aI80
aI182
asg12
I0
sa(dp1045
g5
I0
sg6
S'Unspecified'
p1046
sg8
S'with_mask'
p1047
sg10
(lp1048
I140
aI93
aI188
aI148
asg12
I0
sa(dp1049
g5
I0
sg6
S'Unspecified'
p1050
sg8
S'with_mask'
p1051
sg10
(lp1052
I261
aI47
aI321
aI120
asg12
I0
sa(dp1053
g5
I0
sg6
S'Unspecified'
p1054
sg8
S'without_mask'
p1055
sg10
(lp1056
I332
aI12
aI394
aI90
asg12
I0
sasS'maksssksksss542'
p1057
(lp1058
(dp1059
g5
I0
sg6
S'Unspecified'
p1060
sg8
S'with_mask'
p1061
sg10
(lp1062
I163
aI47
aI239
aI137
asg12
I0
sasS'maksssksksss695'
p1063
(lp1064
(dp1065
g5
I0
sg6
S'Unspecified'
p1066
sg8
S'with_mask'
p1067
sg10
(lp1068
I297
aI174
aI337
aI215
asg12
I0
sa(dp1069
g5
I0
sg6
S'Unspecified'
p1070
sg8
S'without_mask'
p1071
sg10
(lp1072
I319
aI125
aI350
aI156
asg12
I0
sa(dp1073
g5
I0
sg6
S'Unspecified'
p1074
sg8
S'without_mask'
p1075
sg10
(lp1076
I164
aI134
aI195
aI165
asg12
I0
sa(dp1077
g5
I0
sg6
S'Unspecified'
p1078
sg8
S'with_mask'
p1079
sg10
(lp1080
I189
aI167
aI230
aI206
asg12
I0
sa(dp1081
g5
I0
sg6
S'Unspecified'
p1082
sg8
S'with_mask'
p1083
sg10
(lp1084
I372
aI135
aI396
aI158
asg12
I0
sa(dp1085
g5
I0
sg6
S'Unspecified'
p1086
sg8
S'with_mask'
p1087
sg10
(lp1088
I59
aI148
aI92
aI189
asg12
I0
sa(dp1089
g5
I0
sg6
S'Unspecified'
p1090
sg8
S'with_mask'
p1091
sg10
(lp1092
I20
aI124
aI42
aI148
asg12
I0
sa(dp1093
g5
I0
sg6
S'Unspecified'
p1094
sg8
S'with_mask'
p1095
sg10
(lp1096
I98
aI143
aI116
aI170
asg12
I0
sa(dp1097
g5
I0
sg6
S'Unspecified'
p1098
sg8
S'with_mask'
p1099
sg10
(lp1100
I131
aI132
aI152
aI153
asg12
I0
sa(dp1101
g5
I0
sg6
S'Unspecified'
p1102
sg8
S'with_mask'
p1103
sg10
(lp1104
I146
aI117
aI169
aI146
asg12
I0
sa(dp1105
g5
I0
sg6
S'Unspecified'
p1106
sg8
S'with_mask'
p1107
sg10
(lp1108
I196
aI118
aI220
aI143
asg12
I0
sa(dp1109
g5
I0
sg6
S'Unspecified'
p1110
sg8
S'with_mask'
p1111
sg10
(lp1112
I220
aI121
aI236
aI140
asg12
I0
sa(dp1113
g5
I0
sg6
S'Unspecified'
p1114
sg8
S'with_mask'
p1115
sg10
(lp1116
I240
aI98
aI252
aI113
asg12
I0
sa(dp1117
g5
I0
sg6
S'Unspecified'
p1118
sg8
S'with_mask'
p1119
sg10
(lp1120
I283
aI89
aI300
aI103
asg12
I0
sa(dp1121
g5
I0
sg6
S'Unspecified'
p1122
sg8
S'without_mask'
p1123
sg10
(lp1124
I112
aI122
aI128
aI142
asg12
I0
sa(dp1125
g5
I0
sg6
S'Unspecified'
p1126
sg8
S'with_mask'
p1127
sg10
(lp1128
I42
aI103
aI56
aI118
asg12
I0
sa(dp1129
g5
I0
sg6
S'Unspecified'
p1130
sg8
S'with_mask'
p1131
sg10
(lp1132
I141
aI95
aI159
aI113
asg12
I0
sa(dp1133
g5
I0
sg6
S'Unspecified'
p1134
sg8
S'without_mask'
p1135
sg10
(lp1136
I183
aI84
aI196
aI98
asg12
I0
sa(dp1137
g5
I0
sg6
S'Unspecified'
p1138
sg8
S'with_mask'
p1139
sg10
(lp1140
I204
aI80
aI210
aI90
asg12
I0
sa(dp1141
g5
I0
sg6
S'Unspecified'
p1142
sg8
S'with_mask'
p1143
sg10
(lp1144
I254
aI79
aI261
aI88
asg12
I0
sa(dp1145
g5
I0
sg6
S'Unspecified'
p1146
sg8
S'with_mask'
p1147
sg10
(lp1148
I166
aI85
aI175
aI95
asg12
I0
sa(dp1149
g5
I0
sg6
S'Unspecified'
p1150
sg8
S'with_mask'
p1151
sg10
(lp1152
I98
aI76
aI106
aI84
asg12
I0
sa(dp1153
g5
I0
sg6
S'Unspecified'
p1154
sg8
S'with_mask'
p1155
sg10
(lp1156
I268
aI93
aI282
aI106
asg12
I0
sa(dp1157
g5
I0
sg6
S'Unspecified'
p1158
sg8
S'with_mask'
p1159
sg10
(lp1160
I226
aI107
aI238
aI122
asg12
I0
sa(dp1161
g5
I0
sg6
S'Unspecified'
p1162
sg8
S'with_mask'
p1163
sg10
(lp1164
I362
aI79
aI371
aI90
asg12
I0
sa(dp1165
g5
I0
sg6
S'Unspecified'
p1166
sg8
S'with_mask'
p1167
sg10
(lp1168
I380
aI76
aI389
aI88
asg12
I0
sa(dp1169
g5
I0
sg6
S'Unspecified'
p1170
sg8
S'with_mask'
p1171
sg10
(lp1172
I310
aI89
aI317
aI98
asg12
I0
sa(dp1173
g5
I0
sg6
S'Unspecified'
p1174
sg8
S'with_mask'
p1175
sg10
(lp1176
I372
aI76
aI380
aI86
asg12
I0
sasS'maksssksksss797'
p1177
(lp1178
(dp1179
g5
I0
sg6
S'Unspecified'
p1180
sg8
S'with_mask'
p1181
sg10
(lp1182
I13
aI84
aI27
aI106
asg12
I0
sa(dp1183
g5
I0
sg6
S'Unspecified'
p1184
sg8
S'with_mask'
p1185
sg10
(lp1186
I44
aI57
aI60
aI77
asg12
I0
sa(dp1187
g5
I0
sg6
S'Unspecified'
p1188
sg8
S'with_mask'
p1189
sg10
(lp1190
I76
aI80
aI90
aI93
asg12
I0
sa(dp1191
g5
I0
sg6
S'Unspecified'
p1192
sg8
S'with_mask'
p1193
sg10
(lp1194
I122
aI69
aI137
aI87
asg12
I0
sa(dp1195
g5
I0
sg6
S'Unspecified'
p1196
sg8
S'with_mask'
p1197
sg10
(lp1198
I190
aI73
aI206
aI91
asg12
I0
sa(dp1199
g5
I0
sg6
S'Unspecified'
p1200
sg8
S'with_mask'
p1201
sg10
(lp1202
I228
aI82
aI241
aI100
asg12
I0
sa(dp1203
g5
I0
sg6
S'Unspecified'
p1204
sg8
S'with_mask'
p1205
sg10
(lp1206
I281
aI67
aI295
aI85
asg12
I0
sa(dp1207
g5
I0
sg6
S'Unspecified'
p1208
sg8
S'without_mask'
p1209
sg10
(lp1210
I368
aI61
aI390
aI97
asg12
I0
sasS'maksssksksss104'
p1211
(lp1212
(dp1213
g5
I0
sg6
S'Unspecified'
p1214
sg8
S'without_mask'
p1215
sg10
(lp1216
I42
aI109
aI66
aI140
asg12
I0
sa(dp1217
g5
I0
sg6
S'Unspecified'
p1218
sg8
S'without_mask'
p1219
sg10
(lp1220
I2
aI105
aI22
aI125
asg12
I0
sa(dp1221
g5
I0
sg6
S'Unspecified'
p1222
sg8
S'without_mask'
p1223
sg10
(lp1224
I30
aI88
aI46
aI105
asg12
I0
sa(dp1225
g5
I0
sg6
S'Unspecified'
p1226
sg8
S'with_mask'
p1227
sg10
(lp1228
I133
aI108
aI174
aI152
asg12
I0
sa(dp1229
g5
I0
sg6
S'Unspecified'
p1230
sg8
S'with_mask'
p1231
sg10
(lp1232
I221
aI101
aI256
aI139
asg12
I0
sa(dp1233
g5
I0
sg6
S'Unspecified'
p1234
sg8
S'without_mask'
p1235
sg10
(lp1236
I304
aI131
aI331
aI158
asg12
I0
sa(dp1237
g5
I0
sg6
S'Unspecified'
p1238
sg8
S'without_mask'
p1239
sg10
(lp1240
I83
aI85
aI96
aI96
asg12
I0
sa(dp1241
g5
I0
sg6
S'Unspecified'
p1242
sg8
S'without_mask'
p1243
sg10
(lp1244
I167
aI91
aI180
aI108
asg12
I0
sasS'maksssksksss26'
p1245
(lp1246
(dp1247
g5
I0
sg6
S'Unspecified'
p1248
sg8
S'with_mask'
p1249
sg10
(lp1250
I73
aI87
aI174
aI206
asg12
I0
sa(dp1251
g5
I0
sg6
S'Unspecified'
p1252
sg8
S'with_mask'
p1253
sg10
(lp1254
I245
aI152
aI327
aI239
asg12
I0
sasS'maksssksksss378'
p1255
(lp1256
(dp1257
g5
I0
sg6
S'Unspecified'
p1258
sg8
S'with_mask'
p1259
sg10
(lp1260
I112
aI90
aI158
aI132
asg12
I0
sa(dp1261
g5
I0
sg6
S'Unspecified'
p1262
sg8
S'with_mask'
p1263
sg10
(lp1264
I237
aI61
aI285
aI103
asg12
I0
sasS'maksssksksss348'
p1265
(lp1266
(dp1267
g5
I0
sg6
S'Unspecified'
p1268
sg8
S'without_mask'
p1269
sg10
(lp1270
I86
aI189
aI188
aI304
asg12
I0
sasS'maksssksksss424'
p1271
(lp1272
(dp1273
g5
I0
sg6
S'Unspecified'
p1274
sg8
S'without_mask'
p1275
sg10
(lp1276
I14
aI185
aI22
aI201
asg12
I0
sa(dp1277
g5
I0
sg6
S'Unspecified'
p1278
sg8
S'with_mask'
p1279
sg10
(lp1280
I31
aI186
aI48
aI205
asg12
I0
sa(dp1281
g5
I0
sg6
S'Unspecified'
p1282
sg8
S'with_mask'
p1283
sg10
(lp1284
I67
aI181
aI74
aI193
asg12
I0
sa(dp1285
g5
I0
sg6
S'Unspecified'
p1286
sg8
S'with_mask'
p1287
sg10
(lp1288
I97
aI194
aI113
aI210
asg12
I0
sa(dp1289
g5
I0
sg6
S'Unspecified'
p1290
sg8
S'without_mask'
p1291
sg10
(lp1292
I126
aI146
aI136
aI158
asg12
I0
sa(dp1293
g5
I0
sg6
S'Unspecified'
p1294
sg8
S'with_mask'
p1295
sg10
(lp1296
I135
aI150
aI149
aI163
asg12
I0
sa(dp1297
g5
I0
sg6
S'Unspecified'
p1298
sg8
S'mask_weared_incorrect'
p1299
sg10
(lp1300
I153
aI155
aI165
aI165
asg12
I0
sa(dp1301
g5
I0
sg6
S'Unspecified'
p1302
sg8
S'without_mask'
p1303
sg10
(lp1304
I142
aI171
aI155
aI185
asg12
I0
sa(dp1305
g5
I0
sg6
S'Unspecified'
p1306
sg8
S'with_mask'
p1307
sg10
(lp1308
I122
aI181
aI137
aI194
asg12
I0
sa(dp1309
g5
I0
sg6
S'Unspecified'
p1310
sg8
S'with_mask'
p1311
sg10
(lp1312
I159
aI173
aI174
aI189
asg12
I0
sa(dp1313
g5
I0
sg6
S'Unspecified'
p1314
sg8
S'with_mask'
p1315
sg10
(lp1316
I176
aI159
aI190
aI176
asg12
I0
sa(dp1317
g5
I0
sg6
S'Unspecified'
p1318
sg8
S'with_mask'
p1319
sg10
(lp1320
I214
aI153
aI226
aI165
asg12
I0
sa(dp1321
g5
I0
sg6
S'Unspecified'
p1322
sg8
S'with_mask'
p1323
sg10
(lp1324
I194
aI179
aI210
aI196
asg12
I0
sa(dp1325
g5
I0
sg6
S'Unspecified'
p1326
sg8
S'with_mask'
p1327
sg10
(lp1328
I203
aI197
aI220
aI217
asg12
I0
sa(dp1329
g5
I0
sg6
S'Unspecified'
p1330
sg8
S'with_mask'
p1331
sg10
(lp1332
I233
aI148
aI248
aI164
asg12
I0
sa(dp1333
g5
I0
sg6
S'Unspecified'
p1334
sg8
S'without_mask'
p1335
sg10
(lp1336
I221
aI248
aI240
aI267
asg12
I0
sa(dp1337
g5
I0
sg6
S'Unspecified'
p1338
sg8
S'with_mask'
p1339
sg10
(lp1340
I222
aI125
aI233
aI135
asg12
I0
sa(dp1341
g5
I0
sg6
S'Unspecified'
p1342
sg8
S'with_mask'
p1343
sg10
(lp1344
I201
aI115
aI210
aI126
asg12
I0
sa(dp1345
g5
I0
sg6
S'Unspecified'
p1346
sg8
S'with_mask'
p1347
sg10
(lp1348
I242
aI126
aI252
aI137
asg12
I0
sa(dp1349
g5
I0
sg6
S'Unspecified'
p1350
sg8
S'with_mask'
p1351
sg10
(lp1352
I287
aI106
aI297
aI116
asg12
I0
sa(dp1353
g5
I0
sg6
S'Unspecified'
p1354
sg8
S'with_mask'
p1355
sg10
(lp1356
I312
aI110
aI319
aI118
asg12
I0
sa(dp1357
g5
I0
sg6
S'Unspecified'
p1358
sg8
S'with_mask'
p1359
sg10
(lp1360
I358
aI130
aI368
aI139
asg12
I0
sasS'maksssksksss659'
p1361
(lp1362
(dp1363
g5
I0
sg6
S'Unspecified'
p1364
sg8
S'mask_weared_incorrect'
p1365
sg10
(lp1366
I113
aI97
aI252
aI251
asg12
I0
sasS'maksssksksss280'
p1367
(lp1368
(dp1369
g5
I0
sg6
S'Unspecified'
p1370
sg8
S'with_mask'
p1371
sg10
(lp1372
I25
aI54
aI43
aI72
asg12
I0
sa(dp1373
g5
I0
sg6
S'Unspecified'
p1374
sg8
S'with_mask'
p1375
sg10
(lp1376
I69
aI25
aI82
aI38
asg12
I0
sa(dp1377
g5
I0
sg6
S'Unspecified'
p1378
sg8
S'with_mask'
p1379
sg10
(lp1380
I94
aI68
aI111
aI84
asg12
I0
sa(dp1381
g5
I0
sg6
S'Unspecified'
p1382
sg8
S'with_mask'
p1383
sg10
(lp1384
I142
aI18
aI155
aI30
asg12
I0
sa(dp1385
g5
I0
sg6
S'Unspecified'
p1386
sg8
S'with_mask'
p1387
sg10
(lp1388
I158
aI31
aI174
aI48
asg12
I0
sa(dp1389
g5
I0
sg6
S'Unspecified'
p1390
sg8
S'with_mask'
p1391
sg10
(lp1392
I197
aI84
aI218
aI107
asg12
I0
sa(dp1393
g5
I0
sg6
S'Unspecified'
p1394
sg8
S'with_mask'
p1395
sg10
(lp1396
I175
aI15
aI190
aI30
asg12
I0
sa(dp1397
g5
I0
sg6
S'Unspecified'
p1398
sg8
S'with_mask'
p1399
sg10
(lp1400
I201
aI18
aI215
aI32
asg12
I0
sa(dp1401
g5
I0
sg6
S'Unspecified'
p1402
sg8
S'with_mask'
p1403
sg10
(lp1404
I239
aI62
aI257
aI81
asg12
I0
sa(dp1405
g5
I0
sg6
S'Unspecified'
p1406
sg8
S'with_mask'
p1407
sg10
(lp1408
I236
aI49
aI250
aI63
asg12
I0
sa(dp1409
g5
I0
sg6
S'Unspecified'
p1410
sg8
S'without_mask'
p1411
sg10
(lp1412
I164
aI17
aI174
aI25
asg12
I0
sa(dp1413
g5
I0
sg6
S'Unspecified'
p1414
sg8
S'without_mask'
p1415
sg10
(lp1416
I233
aI22
aI242
aI33
asg12
I0
sa(dp1417
g5
I0
sg6
S'Unspecified'
p1418
sg8
S'with_mask'
p1419
sg10
(lp1420
I235
aI7
aI245
aI16
asg12
I0
sa(dp1421
g5
I0
sg6
S'Unspecified'
p1422
sg8
S'with_mask'
p1423
sg10
(lp1424
I260
aI31
aI273
aI42
asg12
I0
sa(dp1425
g5
I0
sg6
S'Unspecified'
p1426
sg8
S'without_mask'
p1427
sg10
(lp1428
I247
aI2
aI257
aI12
asg12
I0
sa(dp1429
g5
I0
sg6
S'Unspecified'
p1430
sg8
S'mask_weared_incorrect'
p1431
sg10
(lp1432
I274
aI15
aI284
aI27
asg12
I0
sa(dp1433
g5
I0
sg6
S'Unspecified'
p1434
sg8
S'with_mask'
p1435
sg10
(lp1436
I294
aI9
aI306
aI22
asg12
I0
sa(dp1437
g5
I0
sg6
S'Unspecified'
p1438
sg8
S'with_mask'
p1439
sg10
(lp1440
I305
aI12
aI310
aI21
asg12
I0
sa(dp1441
g5
I0
sg6
S'Unspecified'
p1442
sg8
S'without_mask'
p1443
sg10
(lp1444
I287
aI10
aI295
aI19
asg12
I0
sa(dp1445
g5
I0
sg6
S'Unspecified'
p1446
sg8
S'without_mask'
p1447
sg10
(lp1448
I347
aI11
aI359
aI21
asg12
I0
sa(dp1449
g5
I0
sg6
S'Unspecified'
p1450
sg8
S'with_mask'
p1451
sg10
(lp1452
I376
aI21
aI388
aI33
asg12
I0
sasS'maksssksksss813'
p1453
(lp1454
(dp1455
g5
I0
sg6
S'Unspecified'
p1456
sg8
S'with_mask'
p1457
sg10
(lp1458
I99
aI100
aI340
aI382
asg12
I0
sasS'maksssksksss546'
p1459
(lp1460
(dp1461
g5
I0
sg6
S'Unspecified'
p1462
sg8
S'with_mask'
p1463
sg10
(lp1464
I27
aI177
aI140
aI311
asg12
I0
sasS'maksssksksss82'
p1465
(lp1466
(dp1467
g5
I0
sg6
S'Unspecified'
p1468
sg8
S'with_mask'
p1469
sg10
(lp1470
I7
aI53
aI27
aI75
asg12
I0
sa(dp1471
g5
I0
sg6
S'Unspecified'
p1472
sg8
S'with_mask'
p1473
sg10
(lp1474
I57
aI67
aI79
aI89
asg12
I0
sa(dp1475
g5
I0
sg6
S'Unspecified'
p1476
sg8
S'with_mask'
p1477
sg10
(lp1478
I149
aI45
aI172
aI72
asg12
I0
sa(dp1479
g5
I0
sg6
S'Unspecified'
p1480
sg8
S'with_mask'
p1481
sg10
(lp1482
I192
aI36
aI215
aI65
asg12
I0
sa(dp1483
g5
I0
sg6
S'Unspecified'
p1484
sg8
S'with_mask'
p1485
sg10
(lp1486
I241
aI74
aI262
aI97
asg12
I0
sa(dp1487
g5
I0
sg6
S'Unspecified'
p1488
sg8
S'with_mask'
p1489
sg10
(lp1490
I331
aI58
aI354
aI88
asg12
I0
sasS'maksssksksss324'
p1491
(lp1492
(dp1493
g5
I0
sg6
S'Unspecified'
p1494
sg8
S'with_mask'
p1495
sg10
(lp1496
I90
aI123
aI224
aI277
asg12
I0
sasS'maksssksksss182'
p1497
(lp1498
(dp1499
g5
I0
sg6
S'Unspecified'
p1500
sg8
S'without_mask'
p1501
sg10
(lp1502
I117
aI48
aI167
aI98
asg12
I0
sa(dp1503
g5
I0
sg6
S'Unspecified'
p1504
sg8
S'with_mask'
p1505
sg10
(lp1506
I206
aI49
aI271
aI109
asg12
I0
sasS'maksssksksss730'
p1507
(lp1508
(dp1509
g5
I0
sg6
S'Unspecified'
p1510
sg8
S'with_mask'
p1511
sg10
(lp1512
I146
aI106
aI157
aI123
asg12
I0
sa(dp1513
g5
I0
sg6
S'Unspecified'
p1514
sg8
S'with_mask'
p1515
sg10
(lp1516
I192
aI75
aI205
aI95
asg12
I0
sa(dp1517
g5
I0
sg6
S'Unspecified'
p1518
sg8
S'with_mask'
p1519
sg10
(lp1520
I243
aI122
aI256
aI141
asg12
I0
sasS'maksssksksss732'
p1521
(lp1522
(dp1523
g5
I0
sg6
S'Unspecified'
p1524
sg8
S'with_mask'
p1525
sg10
(lp1526
I291
aI47
aI323
aI83
asg12
I0
sa(dp1527
g5
I0
sg6
S'Unspecified'
p1528
sg8
S'with_mask'
p1529
sg10
(lp1530
I347
aI51
aI359
aI66
asg12
I0
sa(dp1531
g5
I0
sg6
S'Unspecified'
p1532
sg8
S'with_mask'
p1533
sg10
(lp1534
I230
aI49
aI259
aI79
asg12
I0
sa(dp1535
g5
I0
sg6
S'Unspecified'
p1536
sg8
S'with_mask'
p1537
sg10
(lp1538
I197
aI49
aI221
aI79
asg12
I0
sa(dp1539
g5
I0
sg6
S'Unspecified'
p1540
sg8
S'with_mask'
p1541
sg10
(lp1542
I151
aI46
aI175
aI68
asg12
I0
sa(dp1543
g5
I0
sg6
S'Unspecified'
p1544
sg8
S'with_mask'
p1545
sg10
(lp1546
I107
aI47
aI129
aI72
asg12
I0
sa(dp1547
g5
I0
sg6
S'Unspecified'
p1548
sg8
S'without_mask'
p1549
sg10
(lp1550
I59
aI54
aI75
aI74
asg12
I0
sa(dp1551
g5
I0
sg6
S'Unspecified'
p1552
sg8
S'without_mask'
p1553
sg10
(lp1554
I39
aI63
aI57
aI84
asg12
I0
sas.